; Function Attrs: mustprogress uwtable
define void @_ZN5draco19RemoveFileExtensionERKNSt7__cxx1112basic_stringIcSt11char_traitsIcESaIcEEE(ptr dead_on_unwind noalias writable sret(%"class.std::__cxx11::basic_string") align 8 %0, ptr noundef nonnull align 8 dereferenceable(32) %1) local_unnamed_addr #3 {
  %3 = tail call noundef i64 @_ZNKSt7__cxx1112basic_stringIcSt11char_traitsIcESaIcEE12find_last_ofEcm(ptr noundef nonnull align 8 dereferenceable(32) %1, i8 noundef signext 46, i64 noundef -1) #11
  %4 = add i64 %3, 1
  %or.cond = icmp ult i64 %4, 2
  br i1 %or.cond, label %9, label %5

5:                                                ; preds = %2
  %6 = tail call noundef i64 @_ZNKSt7__cxx1112basic_stringIcSt11char_traitsIcESaIcEE6lengthEv(ptr noundef nonnull align 8 dereferenceable(32) %1) #11
  %7 = add i64 %6, -1
  %8 = icmp eq i64 %3, %7
  br i1 %8, label %9, label %10

9:                                                ; preds = %5, %2
  tail call void @_ZNSt7__cxx1112basic_stringIcSt11char_traitsIcESaIcEEC1ERKS4_(ptr noundef nonnull align 8 dereferenceable(32) %0, ptr noundef nonnull align 8 dereferenceable(32) %1)
  br label %11

10:                                               ; preds = %5
  tail call void @_ZNKSt7__cxx1112basic_stringIcSt11char_traitsIcESaIcEE6substrEmm(ptr dead_on_unwind writable sret(%"class.std::__cxx11::basic_string") align 8 %0, ptr noundef nonnull align 8 dereferenceable(32) %1, i64 noundef 0, i64 noundef %3)
  br label %11

11:                                               ; preds = %10, %9
  ret void
}